; Function Attrs: mustprogress uwtable
define internal void @_ZN11opencv_testL46gtest_Size_MatType_countNonZero_EvalGenerator_Ev(ptr dead_on_unwind noalias writable sret(%"class.testing::internal::ParamGenerator") align 8 %0) #3 {
  %2 = alloca %"class.testing::internal::CartesianProductHolder2.146", align 8
  %.sroa.03.0.copyload = load i64, ptr @_ZN4perfL5szVGAE, align 8
  %.sroa.02.0.copyload = load i64, ptr @_ZN4perfL6sz720pE, align 8
  %.sroa.01.0.copyload = load i64, ptr @_ZN4perfL7sz1080pE, align 8
  %.sroa.0.0.copyload = load i64, ptr @_ZN4perfL5szODDE, align 8
  store i64 %.sroa.03.0.copyload, ptr %2, align 8, !alias.scope !38
  %3 = getelementptr inbounds i8, ptr %2, i64 8
  store i64 %.sroa.02.0.copyload, ptr %3, align 8, !alias.scope !38
  %4 = getelementptr inbounds i8, ptr %2, i64 16
  store i64 %.sroa.01.0.copyload, ptr %4, align 8, !alias.scope !38
  %5 = getelementptr inbounds i8, ptr %2, i64 24
  store i64 %.sroa.0.0.copyload, ptr %5, align 8, !alias.scope !38
  %6 = getelementptr inbounds i8, ptr %2, i64 32
  store <4 x i32> <i32 0, i32 1, i32 2, i32 3>, ptr %6, align 8, !alias.scope !38
  %7 = getelementptr inbounds i8, ptr %2, i64 48
  store i32 4, ptr %7, align 8, !alias.scope !38
  %8 = getelementptr inbounds i8, ptr %2, i64 52
  store i32 5, ptr %8, align 4, !alias.scope !38
  %9 = getelementptr inbounds i8, ptr %2, i64 56
  store i32 6, ptr %9, align 8, !alias.scope !38
  call void @_ZNK7testing8internal23CartesianProductHolder2INS0_11ValueArray4IN2cv5Size_IiEES5_S5_S5_EENS0_11ValueArray7IiiiiiiiEEEcvNS0_14ParamGeneratorISt5tupleIJT_T0_EEEEIS5_N4perf7MatTypeEEEv(ptr dead_on_unwind writable sret(%"class.testing::internal::ParamGenerator") align 8 %0, ptr noundef nonnull align 4 dereferenceable(60) %2)
  ret void
}